target datalayout = "e-m:e-p270:32:32-p271:32:32-p272:64:64-i64:64-i128:128-f80:128-n8:16:32:64-S128"
target triple = "x86_64-unknown-linux-gnu"

%"class.llvh::raw_ostream" = type <{ ptr, ptr, ptr, ptr, i32, [4 x i8] }>

; Function Attrs: mustprogress nounwind uwtable
define hidden void @_ZN4llvh11raw_ostream14flush_nonemptyEv(ptr noundef nonnull align 8 dereferenceable(36) %this) #0 align 2 {
entry:
  %this.addr = alloca ptr, align 8
  %Length = alloca i64, align 8
  store ptr %this, ptr %this.addr, align 8
  %this1 = load ptr, ptr %this.addr, align 8
  %OutBufCur = getelementptr inbounds %"class.llvh::raw_ostream", ptr %this1, i32 0, i32 3
  %0 = load ptr, ptr %OutBufCur, align 8
  %OutBufStart = getelementptr inbounds %"class.llvh::raw_ostream", ptr %this1, i32 0, i32 1
  %1 = load ptr, ptr %OutBufStart, align 8
  %sub.ptr.lhs.cast = ptrtoint ptr %0 to i64
  %sub.ptr.rhs.cast = ptrtoint ptr %1 to i64
  %sub.ptr.sub = sub i64 %sub.ptr.lhs.cast, %sub.ptr.rhs.cast
  store i64 %sub.ptr.sub, ptr %Length, align 8
  %OutBufStart2 = getelementptr inbounds %"class.llvh::raw_ostream", ptr %this1, i32 0, i32 1
  %2 = load ptr, ptr %OutBufStart2, align 8
  %OutBufCur3 = getelementptr inbounds %"class.llvh::raw_ostream", ptr %this1, i32 0, i32 3
  store ptr %2, ptr %OutBufCur3, align 8
  %OutBufStart4 = getelementptr inbounds %"class.llvh::raw_ostream", ptr %this1, i32 0, i32 1
  %3 = load ptr, ptr %OutBufStart4, align 8
  %4 = load i64, ptr %Length, align 8
  %vtable = load ptr, ptr %this1, align 8
  %vfn = getelementptr inbounds ptr, ptr %vtable, i64 7
  %5 = load ptr, ptr %vfn, align 8
  call void %5(ptr noundef nonnull align 8 dereferenceable(36) %this1, ptr noundef %3, i64 noundef %4)
  ret void
}

; Function Attrs: mustprogress nounwind uwtable
define hidden void @_ZN4llvh11raw_ostream16SetBufferAndModeEPcmNS0_10BufferKindE(ptr noundef nonnull align 8 dereferenceable(36) %this, ptr noundef %BufferStart, i64 noundef %Size, i32 noundef %Mode) #0 align 2 {
entry:
  %this.addr = alloca ptr, align 8
  %BufferStart.addr = alloca ptr, align 8
  %Size.addr = alloca i64, align 8
  %Mode.addr = alloca i32, align 4
  store ptr %this, ptr %this.addr, align 8
  store ptr %BufferStart, ptr %BufferStart.addr, align 8
  store i64 %Size, ptr %Size.addr, align 8
  store i32 %Mode, ptr %Mode.addr, align 4
  %this1 = load ptr, ptr %this.addr, align 8
  %BufferMode = getelementptr inbounds %"class.llvh::raw_ostream", ptr %this1, i32 0, i32 4
  %0 = load i32, ptr %BufferMode, align 8
  %cmp = icmp eq i32 %0, 1
  br i1 %cmp, label %if.then, label %if.end

if.then:                                          ; preds = %entry
  %OutBufStart = getelementptr inbounds %"class.llvh::raw_ostream", ptr %this1, i32 0, i32 1
  %1 = load ptr, ptr %OutBufStart, align 8
  %isnull = icmp eq ptr %1, null
  br i1 %isnull, label %delete.end, label %delete.notnull

delete.notnull:                                   ; preds = %if.then
  call void @_ZdaPv(ptr noundef %1) #12
  br label %delete.end

delete.end:                                       ; preds = %delete.notnull, %if.then
  br label %if.end

if.end:                                           ; preds = %delete.end, %entry
  %2 = load ptr, ptr %BufferStart.addr, align 8
  %OutBufStart2 = getelementptr inbounds %"class.llvh::raw_ostream", ptr %this1, i32 0, i32 1
  store ptr %2, ptr %OutBufStart2, align 8
  %OutBufStart3 = getelementptr inbounds %"class.llvh::raw_ostream", ptr %this1, i32 0, i32 1
  %3 = load ptr, ptr %OutBufStart3, align 8
  %4 = load i64, ptr %Size.addr, align 8
  %add.ptr = getelementptr inbounds i8, ptr %3, i64 %4
  %OutBufEnd = getelementptr inbounds %"class.llvh::raw_ostream", ptr %this1, i32 0, i32 2
  store ptr %add.ptr, ptr %OutBufEnd, align 8
  %OutBufStart4 = getelementptr inbounds %"class.llvh::raw_ostream", ptr %this1, i32 0, i32 1
  %5 = load ptr, ptr %OutBufStart4, align 8
  %OutBufCur = getelementptr inbounds %"class.llvh::raw_ostream", ptr %this1, i32 0, i32 3
  store ptr %5, ptr %OutBufCur, align 8
  %6 = load i32, ptr %Mode.addr, align 4
  %BufferMode5 = getelementptr inbounds %"class.llvh::raw_ostream", ptr %this1, i32 0, i32 4
  store i32 %6, ptr %BufferMode5, align 8
  ret void
}

; Function Attrs: mustprogress nounwind uwtable
define linkonce_odr hidden void @_ZN4llvh11raw_ostream5flushEv(ptr noundef nonnull align 8 dereferenceable(36) %this) #0 comdat align 2 {
entry:
  %this.addr = alloca ptr, align 8
  store ptr %this, ptr %this.addr, align 8
  %this1 = load ptr, ptr %this.addr, align 8
  %OutBufCur = getelementptr inbounds %"class.llvh::raw_ostream", ptr %this1, i32 0, i32 3
  %0 = load ptr, ptr %OutBufCur, align 8
  %OutBufStart = getelementptr inbounds %"class.llvh::raw_ostream", ptr %this1, i32 0, i32 1
  %1 = load ptr, ptr %OutBufStart, align 8
  %cmp = icmp ne ptr %0, %1
  br i1 %cmp, label %if.then, label %if.end

if.then:                                          ; preds = %entry
  call void @_ZN4llvh11raw_ostream14flush_nonemptyEv(ptr noundef nonnull align 8 dereferenceable(36) %this1)
  br label %if.end

if.end:                                           ; preds = %if.then, %entry
  ret void
}

; Function Attrs: mustprogress nounwind uwtable
define linkonce_odr hidden void @_ZN4llvh11raw_ostream13SetUnbufferedEv(ptr noundef nonnull align 8 dereferenceable(36) %this) #0 comdat align 2 {
entry:
  %this.addr = alloca ptr, align 8
  store ptr %this, ptr %this.addr, align 8
  %this1 = load ptr, ptr %this.addr, align 8
  call void @_ZN4llvh11raw_ostream5flushEv(ptr noundef nonnull align 8 dereferenceable(36) %this1)
  call void @_ZN4llvh11raw_ostream16SetBufferAndModeEPcmNS0_10BufferKindE(ptr noundef nonnull align 8 dereferenceable(36) %this1, ptr noundef null, i64 noundef 0, i32 noundef 0)
  ret void
}

; Function Attrs: mustprogress nounwind uwtable
define linkonce_odr hidden void @_ZN4llvh11raw_ostream13SetBufferSizeEm(ptr noundef nonnull align 8 dereferenceable(36) %this, i64 noundef %Size) #0 comdat align 2 {
entry:
  %this.addr = alloca ptr, align 8
  %Size.addr = alloca i64, align 8
  store ptr %this, ptr %this.addr, align 8
  store i64 %Size, ptr %Size.addr, align 8
  %this1 = load ptr, ptr %this.addr, align 8
  call void @_ZN4llvh11raw_ostream5flushEv(ptr noundef nonnull align 8 dereferenceable(36) %this1)
  %0 = load i64, ptr %Size.addr, align 8
  %call = call noalias noundef nonnull ptr @_Znam(i64 noundef %0) #14
  %1 = load i64, ptr %Size.addr, align 8
  call void @_ZN4llvh11raw_ostream16SetBufferAndModeEPcmNS0_10BufferKindE(ptr noundef nonnull align 8 dereferenceable(36) %this1, ptr noundef %call, i64 noundef %1, i32 noundef 1)
  ret void
}

; Function Attrs: mustprogress nounwind uwtable
define hidden void @_ZN4llvh11raw_ostream11SetBufferedEv(ptr noundef nonnull align 8 dereferenceable(36) %this) #0 align 2 {
entry:
  %this.addr = alloca ptr, align 8
  %Size = alloca i64, align 8
  store ptr %this, ptr %this.addr, align 8
  %this1 = load ptr, ptr %this.addr, align 8
  %vtable = load ptr, ptr %this1, align 8
  %vfn = getelementptr inbounds ptr, ptr %vtable, i64 9
  %0 = load ptr, ptr %vfn, align 8
  %call = call noundef i64 %0(ptr noundef nonnull align 8 dereferenceable(36) %this1)
  store i64 %call, ptr %Size, align 8
  %1 = load i64, ptr %Size, align 8
  %tobool = icmp ne i64 %1, 0
  br i1 %tobool, label %if.then, label %if.else

if.then:                                          ; preds = %entry
  %2 = load i64, ptr %Size, align 8
  call void @_ZN4llvh11raw_ostream13SetBufferSizeEm(ptr noundef nonnull align 8 dereferenceable(36) %this1, i64 noundef %2)
  br label %if.end

if.else:                                          ; preds = %entry
  call void @_ZN4llvh11raw_ostream13SetUnbufferedEv(ptr noundef nonnull align 8 dereferenceable(36) %this1)
  br label %if.end

if.end:                                           ; preds = %if.else, %if.then
  ret void
}