; Function Attrs: mustprogress nounwind uwtable
define hidden void @_ZN4llvh11raw_ostream11SetBufferedEv(ptr noundef nonnull align 8 dereferenceable(36) %this) local_unnamed_addr #0 align 2 {
entry:
  %vtable = load ptr, ptr %this, align 8
  %vfn = getelementptr inbounds i8, ptr %vtable, i64 72
  %0 = load ptr, ptr %vfn, align 8
  %call = tail call noundef i64 %0(ptr noundef nonnull align 8 dereferenceable(36) %this) #26
  %tobool.not = icmp eq i64 %call, 0
  %OutBufCur.i.i2 = getelementptr inbounds i8, ptr %this, i64 24
  %1 = load ptr, ptr %OutBufCur.i.i2, align 8
  %OutBufStart.i.i3 = getelementptr inbounds i8, ptr %this, i64 8
  %2 = load ptr, ptr %OutBufStart.i.i3, align 8
  %cmp.not.i.i4 = icmp eq ptr %1, %2
  br i1 %tobool.not, label %if.else, label %if.then

if.then:                                          ; preds = %entry
  br i1 %cmp.not.i.i4, label %_ZN4llvh11raw_ostream5flushEv.exit.i, label %if.then.i.i

if.then.i.i:                                      ; preds = %if.then
  %sub.ptr.lhs.cast.i.i.i = ptrtoint ptr %1 to i64
  %sub.ptr.rhs.cast.i.i.i = ptrtoint ptr %2 to i64
  %sub.ptr.sub.i.i.i = sub i64 %sub.ptr.lhs.cast.i.i.i, %sub.ptr.rhs.cast.i.i.i
  store ptr %2, ptr %OutBufCur.i.i2, align 8
  %vtable.i.i.i = load ptr, ptr %this, align 8
  %vfn.i.i.i = getelementptr inbounds i8, ptr %vtable.i.i.i, i64 56
  %3 = load ptr, ptr %vfn.i.i.i, align 8
  tail call void %3(ptr noundef nonnull align 8 dereferenceable(36) %this, ptr noundef %2, i64 noundef %sub.ptr.sub.i.i.i) #26
  br label %_ZN4llvh11raw_ostream5flushEv.exit.i

_ZN4llvh11raw_ostream5flushEv.exit.i:             ; preds = %if.then.i.i, %if.then
  %call.i = tail call noalias noundef nonnull ptr @_Znam(i64 noundef %call) #27
  %BufferMode.i.i = getelementptr inbounds i8, ptr %this, i64 32
  %4 = load i32, ptr %BufferMode.i.i, align 8
  %cmp.i.i = icmp eq i32 %4, 1
  br i1 %cmp.i.i, label %if.then.i3.i, label %_ZN4llvh11raw_ostream13SetBufferSizeEm.exit

if.then.i3.i:                                     ; preds = %_ZN4llvh11raw_ostream5flushEv.exit.i
  %5 = load ptr, ptr %OutBufStart.i.i3, align 8
  %isnull.i.i = icmp eq ptr %5, null
  br i1 %isnull.i.i, label %_ZN4llvh11raw_ostream13SetBufferSizeEm.exit, label %delete.notnull.i.i

delete.notnull.i.i:                               ; preds = %if.then.i3.i
  tail call void @_ZdaPv(ptr noundef nonnull %5) #24
  br label %_ZN4llvh11raw_ostream13SetBufferSizeEm.exit

_ZN4llvh11raw_ostream13SetBufferSizeEm.exit:      ; preds = %_ZN4llvh11raw_ostream5flushEv.exit.i, %if.then.i3.i, %delete.notnull.i.i
  store ptr %call.i, ptr %OutBufStart.i.i3, align 8
  %add.ptr.i.i = getelementptr inbounds i8, ptr %call.i, i64 %call
  %OutBufEnd.i.i = getelementptr inbounds i8, ptr %this, i64 16
  store ptr %add.ptr.i.i, ptr %OutBufEnd.i.i, align 8
  store ptr %call.i, ptr %OutBufCur.i.i2, align 8
  store i32 1, ptr %BufferMode.i.i, align 8
  br label %if.end

if.else:                                          ; preds = %entry
  br i1 %cmp.not.i.i4, label %_ZN4llvh11raw_ostream5flushEv.exit.i11, label %if.then.i.i5

if.then.i.i5:                                     ; preds = %if.else
  %sub.ptr.lhs.cast.i.i.i6 = ptrtoint ptr %1 to i64
  %sub.ptr.rhs.cast.i.i.i7 = ptrtoint ptr %2 to i64
  %sub.ptr.sub.i.i.i8 = sub i64 %sub.ptr.lhs.cast.i.i.i6, %sub.ptr.rhs.cast.i.i.i7
  store ptr %2, ptr %OutBufCur.i.i2, align 8
  %vtable.i.i.i9 = load ptr, ptr %this, align 8
  %vfn.i.i.i10 = getelementptr inbounds i8, ptr %vtable.i.i.i9, i64 56
  %6 = load ptr, ptr %vfn.i.i.i10, align 8
  tail call void %6(ptr noundef nonnull align 8 dereferenceable(36) %this, ptr noundef %2, i64 noundef %sub.ptr.sub.i.i.i8) #26
  br label %_ZN4llvh11raw_ostream5flushEv.exit.i11

_ZN4llvh11raw_ostream5flushEv.exit.i11:           ; preds = %if.then.i.i5, %if.else
  %BufferMode.i.i12 = getelementptr inbounds i8, ptr %this, i64 32
  %7 = load i32, ptr %BufferMode.i.i12, align 8
  %cmp.i.i13 = icmp eq i32 %7, 1
  br i1 %cmp.i.i13, label %if.then.i2.i, label %_ZN4llvh11raw_ostream13SetUnbufferedEv.exit

if.then.i2.i:                                     ; preds = %_ZN4llvh11raw_ostream5flushEv.exit.i11
  %8 = load ptr, ptr %OutBufStart.i.i3, align 8
  %isnull.i.i14 = icmp eq ptr %8, null
  br i1 %isnull.i.i14, label %_ZN4llvh11raw_ostream13SetUnbufferedEv.exit, label %delete.notnull.i.i15

delete.notnull.i.i15:                             ; preds = %if.then.i2.i
  tail call void @_ZdaPv(ptr noundef nonnull %8) #24
  br label %_ZN4llvh11raw_ostream13SetUnbufferedEv.exit

_ZN4llvh11raw_ostream13SetUnbufferedEv.exit:      ; preds = %_ZN4llvh11raw_ostream5flushEv.exit.i11, %if.then.i2.i, %delete.notnull.i.i15
  tail call void @llvm.memset.p0.i64(ptr noundef nonnull align 8 dereferenceable(28) %OutBufStart.i.i3, i8 0, i64 28, i1 false)
  br label %if.end

if.end:                                           ; preds = %_ZN4llvh11raw_ostream13SetUnbufferedEv.exit, %_ZN4llvh11raw_ostream13SetBufferSizeEm.exit
  ret void
}